target datalayout = "e-m:e-p270:32:32-p271:32:32-p272:64:64-i64:64-i128:128-f80:128-n8:16:32:64-S128"
target triple = "x86_64-pc-linux-gnu"

%struct._exr_decode_pipeline = type { i64, ptr, i16, i16, i32, ptr, %struct.exr_chunk_info_t, i32, i32, i64, ptr, ptr, i64, ptr, i64, ptr, i64, ptr, i64, ptr, i64, ptr, i64, ptr, ptr, ptr, ptr, ptr, ptr, [5 x %struct.exr_coding_channel_info_t] }
%struct.exr_chunk_info_t = type { i32, i32, i32, i32, i32, i8, i8, i8, i8, i64, i64, i64, i64, i64 }
%struct.exr_coding_channel_info_t = type { ptr, i32, i32, i32, i32, i8, i8, i16, i16, i16, i32, i32, %union.anon }
%union.anon = type { ptr }
%struct._priv_exr_context_t = type { i8, i8, i8, i8, i8, i8, i8, i8, %struct.exr_attr_string_t, %struct.exr_attr_string_t, ptr, ptr, ptr, ptr, ptr, ptr, ptr, ptr, i32, i32, i32, i32, i32, float, ptr, ptr, ptr, i64, ptr, ptr, i64, i32, i32, i32, i32, %struct._priv_exr_part_t, ptr, ptr, %struct.exr_attribute_list, %union.pthread_mutex_t, i8, i8, [2 x i8], i32 }
%struct.exr_attr_string_t = type { i32, i32, ptr }
%struct._priv_exr_part_t = type { i32, i32, %struct.exr_attribute_list, ptr, ptr, ptr, ptr, ptr, ptr, ptr, ptr, ptr, ptr, ptr, ptr, ptr, ptr, %struct.exr_attr_box2i_t, %struct.exr_attr_box2i_t, i32, i32, i32, float, i32, i32, ptr, ptr, ptr, ptr, i64, i16, i16, i32, i64, i64 }
%struct.exr_attr_box2i_t = type { %struct.exr_attr_v2i_t, %struct.exr_attr_v2i_t }
%struct.exr_attr_v2i_t = type { i32, i32 }
%struct.exr_attribute_list = type { i32, i32, ptr, ptr }
%union.pthread_mutex_t = type { %struct.__pthread_mutex_s }
%struct.__pthread_mutex_s = type { i32, i32, i32, i32, i32, i16, i16, %struct.__pthread_internal_list }
%struct.__pthread_internal_list = type { ptr, ptr }

@.str.1 = private unnamed_addr constant [29 x i8] c"Part index (%d) out of range\00", align 1

; Function Attrs: inlinehint nounwind uwtable
define internal void @priv_to_native32(ptr noundef %0, i32 noundef %1) #5 {
  %3 = alloca ptr, align 8
  %4 = alloca i32, align 4
  store ptr %0, ptr %3, align 8, !tbaa !10
  store i32 %1, ptr %4, align 4, !tbaa !8
  ret void
}

; Function Attrs: inlinehint nounwind uwtable
define internal void @priv_to_native16(ptr noundef %0, i32 noundef %1) #5 {
  %3 = alloca ptr, align 8
  %4 = alloca i32, align 4
  store ptr %0, ptr %3, align 8, !tbaa !10
  store i32 %1, ptr %4, align 4, !tbaa !8
  ret void
}

; Function Attrs: nounwind uwtable
define internal i32 @read_uncompressed_direct(ptr noundef %0) #0 {
  %2 = alloca i32, align 4
  %3 = alloca ptr, align 8
  %4 = alloca i32, align 4
  %5 = alloca i32, align 4
  %6 = alloca i32, align 4
  %7 = alloca i64, align 8
  %8 = alloca i64, align 8
  %9 = alloca ptr, align 8
  %10 = alloca ptr, align 8
  %11 = alloca i32, align 4
  %12 = alloca i32, align 4
  %13 = alloca i32, align 4
  %14 = alloca ptr, align 8
  store ptr %0, ptr %3, align 8, !tbaa !11
  call void @llvm.lifetime.start.p0(i64 4, ptr %4) #6
  call void @llvm.lifetime.start.p0(i64 4, ptr %5) #6
  call void @llvm.lifetime.start.p0(i64 4, ptr %6) #6
  call void @llvm.lifetime.start.p0(i64 8, ptr %7) #6
  call void @llvm.lifetime.start.p0(i64 8, ptr %8) #6
  call void @llvm.lifetime.start.p0(i64 8, ptr %9) #6
  call void @llvm.lifetime.start.p0(i64 8, ptr %10) #6
  %15 = load ptr, ptr %3, align 8, !tbaa !11
  %16 = getelementptr inbounds nuw %struct._exr_decode_pipeline, ptr %15, i32 0, i32 5
  %17 = load ptr, ptr %16, align 8, !tbaa !47
  store ptr %17, ptr %10, align 8, !tbaa !3
  %18 = load ptr, ptr %10, align 8, !tbaa !3
  %19 = icmp ne ptr %18, null
  br i1 %19, label %21, label %20

20:                                               ; preds = %1
  store i32 2, ptr %2, align 4
  store i32 1, ptr %11, align 4
  br label %189

21:                                               ; preds = %1
  %22 = load ptr, ptr %10, align 8, !tbaa !3
  %23 = getelementptr inbounds nuw %struct._priv_exr_context_t, ptr %22, i32 0, i32 0
  %24 = load i8, ptr %23, align 8, !tbaa !50
  %25 = zext i8 %24 to i32
  %26 = icmp ne i32 %25, 0
  br i1 %26, label %27, label %33

27:                                               ; preds = %21
  %28 = load ptr, ptr %10, align 8, !tbaa !3
  %29 = getelementptr inbounds nuw %struct._priv_exr_context_t, ptr %28, i32 0, i32 12
  %30 = load ptr, ptr %29, align 8, !tbaa !13
  %31 = load ptr, ptr %10, align 8, !tbaa !3
  %32 = call i32 %30(ptr noundef %31, i32 noundef 7)
  store i32 %32, ptr %2, align 4
  store i32 1, ptr %11, align 4
  br label %189

33:                                               ; preds = %21
  %34 = load ptr, ptr %3, align 8, !tbaa !11
  %35 = getelementptr inbounds nuw %struct._exr_decode_pipeline, ptr %34, i32 0, i32 4
  %36 = load i32, ptr %35, align 4, !tbaa !44
  %37 = icmp slt i32 %36, 0
  br i1 %37, label %46, label %38

38:                                               ; preds = %33
  %39 = load ptr, ptr %3, align 8, !tbaa !11
  %40 = getelementptr inbounds nuw %struct._exr_decode_pipeline, ptr %39, i32 0, i32 4
  %41 = load i32, ptr %40, align 4, !tbaa !44
  %42 = load ptr, ptr %10, align 8, !tbaa !3
  %43 = getelementptr inbounds nuw %struct._priv_exr_context_t, ptr %42, i32 0, i32 34
  %44 = load i32, ptr %43, align 4, !tbaa !28
  %45 = icmp sge i32 %41, %44
  br i1 %45, label %46, label %55

46:                                               ; preds = %38, %33
  %47 = load ptr, ptr %10, align 8, !tbaa !3
  %48 = getelementptr inbounds nuw %struct._priv_exr_context_t, ptr %47, i32 0, i32 14
  %49 = load ptr, ptr %48, align 8, !tbaa !38
  %50 = load ptr, ptr %10, align 8, !tbaa !3
  %51 = load ptr, ptr %3, align 8, !tbaa !11
  %52 = getelementptr inbounds nuw %struct._exr_decode_pipeline, ptr %51, i32 0, i32 4
  %53 = load i32, ptr %52, align 4, !tbaa !44
  %54 = call i32 (ptr, i32, ptr, ...) %49(ptr noundef %50, i32 noundef 4, ptr noundef @.str.1, i32 noundef %53)
  store i32 %54, ptr %2, align 4
  store i32 1, ptr %11, align 4
  br label %189

55:                                               ; preds = %38
  %56 = load ptr, ptr %3, align 8, !tbaa !11
  %57 = getelementptr inbounds nuw %struct._exr_decode_pipeline, ptr %56, i32 0, i32 6
  %58 = getelementptr inbounds nuw %struct.exr_chunk_info_t, ptr %57, i32 0, i32 9
  %59 = load i64, ptr %58, align 8, !tbaa !71
  store i64 %59, ptr %7, align 8, !tbaa !32
  %60 = load ptr, ptr %3, align 8, !tbaa !11
  %61 = getelementptr inbounds nuw %struct._exr_decode_pipeline, ptr %60, i32 0, i32 6
  %62 = getelementptr inbounds nuw %struct.exr_chunk_info_t, ptr %61, i32 0, i32 3
  %63 = load i32, ptr %62, align 4, !tbaa !72
  store i32 %63, ptr %5, align 4, !tbaa !8
  %64 = load ptr, ptr %3, align 8, !tbaa !11
  %65 = getelementptr inbounds nuw %struct._exr_decode_pipeline, ptr %64, i32 0, i32 6
  %66 = getelementptr inbounds nuw %struct.exr_chunk_info_t, ptr %65, i32 0, i32 2
  %67 = load i32, ptr %66, align 8, !tbaa !73
  store i32 %67, ptr %6, align 4, !tbaa !8
  call void @llvm.lifetime.start.p0(i64 4, ptr %12) #6
  store i32 0, ptr %12, align 4, !tbaa !8
  br label %68

68:                                               ; preds = %183, %55
  %69 = load i32, ptr %12, align 4, !tbaa !8
  %70 = load i32, ptr %5, align 4, !tbaa !8
  %71 = icmp slt i32 %69, %70
  br i1 %71, label %73, label %72

72:                                               ; preds = %68
  store i32 2, ptr %11, align 4
  br label %186

73:                                               ; preds = %68
  call void @llvm.lifetime.start.p0(i64 4, ptr %13) #6
  store i32 0, ptr %13, align 4, !tbaa !8
  br label %74

74:                                               ; preds = %177, %73
  %75 = load i32, ptr %13, align 4, !tbaa !8
  %76 = load ptr, ptr %3, align 8, !tbaa !11
  %77 = getelementptr inbounds nuw %struct._exr_decode_pipeline, ptr %76, i32 0, i32 2
  %78 = load i16, ptr %77, align 8, !tbaa !51
  %79 = sext i16 %78 to i32
  %80 = icmp slt i32 %75, %79
  br i1 %80, label %82, label %81

81:                                               ; preds = %74
  store i32 5, ptr %11, align 4
  br label %180

82:                                               ; preds = %74
  call void @llvm.lifetime.start.p0(i64 8, ptr %14) #6
  %83 = load ptr, ptr %3, align 8, !tbaa !11
  %84 = getelementptr inbounds nuw %struct._exr_decode_pipeline, ptr %83, i32 0, i32 1
  %85 = load ptr, ptr %84, align 8, !tbaa !52
  %86 = load i32, ptr %13, align 4, !tbaa !8
  %87 = sext i32 %86 to i64
  %88 = getelementptr inbounds %struct.exr_coding_channel_info_t, ptr %85, i64 %87
  store ptr %88, ptr %14, align 8, !tbaa !10
  %89 = load ptr, ptr %14, align 8, !tbaa !10
  %90 = getelementptr inbounds nuw %struct.exr_coding_channel_info_t, ptr %89, i32 0, i32 12
  %91 = load ptr, ptr %90, align 8, !tbaa !34
  store ptr %91, ptr %9, align 8, !tbaa !49
  %92 = load ptr, ptr %14, align 8, !tbaa !10
  %93 = getelementptr inbounds nuw %struct.exr_coding_channel_info_t, ptr %92, i32 0, i32 2
  %94 = load i32, ptr %93, align 4, !tbaa !74
  %95 = sext i32 %94 to i64
  %96 = load ptr, ptr %14, align 8, !tbaa !10
  %97 = getelementptr inbounds nuw %struct.exr_coding_channel_info_t, ptr %96, i32 0, i32 6
  %98 = load i8, ptr %97, align 1, !tbaa !59
  %99 = sext i8 %98 to i64
  %100 = mul i64 %95, %99
  store i64 %100, ptr %8, align 8, !tbaa !32
  %101 = load ptr, ptr %14, align 8, !tbaa !10
  %102 = getelementptr inbounds nuw %struct.exr_coding_channel_info_t, ptr %101, i32 0, i32 1
  %103 = load i32, ptr %102, align 8, !tbaa !53
  %104 = icmp eq i32 %103, 0
  br i1 %104, label %105, label %106

105:                                              ; preds = %82
  store i32 7, ptr %11, align 4
  br label %174

106:                                              ; preds = %82
  %107 = load ptr, ptr %14, align 8, !tbaa !10
  %108 = getelementptr inbounds nuw %struct.exr_coding_channel_info_t, ptr %107, i32 0, i32 4
  %109 = load i32, ptr %108, align 4, !tbaa !61
  %110 = icmp sgt i32 %109, 1
  br i1 %110, label %111, label %135

111:                                              ; preds = %106
  %112 = load i32, ptr %6, align 4, !tbaa !8
  %113 = load i32, ptr %12, align 4, !tbaa !8
  %114 = add nsw i32 %112, %113
  %115 = load ptr, ptr %14, align 8, !tbaa !10
  %116 = getelementptr inbounds nuw %struct.exr_coding_channel_info_t, ptr %115, i32 0, i32 4
  %117 = load i32, ptr %116, align 4, !tbaa !61
  %118 = srem i32 %114, %117
  %119 = icmp ne i32 %118, 0
  br i1 %119, label %120, label %121

120:                                              ; preds = %111
  store i32 7, ptr %11, align 4
  br label %174

121:                                              ; preds = %111
  %122 = load i32, ptr %12, align 4, !tbaa !8
  %123 = load ptr, ptr %14, align 8, !tbaa !10
  %124 = getelementptr inbounds nuw %struct.exr_coding_channel_info_t, ptr %123, i32 0, i32 4
  %125 = load i32, ptr %124, align 4, !tbaa !61
  %126 = sdiv i32 %122, %125
  %127 = sext i32 %126 to i64
  %128 = load ptr, ptr %14, align 8, !tbaa !10
  %129 = getelementptr inbounds nuw %struct.exr_coding_channel_info_t, ptr %128, i32 0, i32 11
  %130 = load i32, ptr %129, align 4, !tbaa !63
  %131 = sext i32 %130 to i64
  %132 = mul i64 %127, %131
  %133 = load ptr, ptr %9, align 8, !tbaa !49
  %134 = getelementptr inbounds nuw i8, ptr %133, i64 %132
  store ptr %134, ptr %9, align 8, !tbaa !49
  br label %145

135:                                              ; preds = %106
  %136 = load i32, ptr %12, align 4, !tbaa !8
  %137 = sext i32 %136 to i64
  %138 = load ptr, ptr %14, align 8, !tbaa !10
  %139 = getelementptr inbounds nuw %struct.exr_coding_channel_info_t, ptr %138, i32 0, i32 11
  %140 = load i32, ptr %139, align 4, !tbaa !63
  %141 = sext i32 %140 to i64
  %142 = mul i64 %137, %141
  %143 = load ptr, ptr %9, align 8, !tbaa !49
  %144 = getelementptr inbounds nuw i8, ptr %143, i64 %142
  store ptr %144, ptr %9, align 8, !tbaa !49
  br label %145

145:                                              ; preds = %135, %121
  %146 = load ptr, ptr %10, align 8, !tbaa !3
  %147 = getelementptr inbounds nuw %struct._priv_exr_context_t, ptr %146, i32 0, i32 10
  %148 = load ptr, ptr %147, align 8, !tbaa !75
  %149 = load ptr, ptr %10, align 8, !tbaa !3
  %150 = load ptr, ptr %9, align 8, !tbaa !49
  %151 = load i64, ptr %8, align 8, !tbaa !32
  %152 = call i32 %148(ptr noundef %149, ptr noundef %150, i64 noundef %151, ptr noundef %7, ptr noundef null, i32 noundef 0)
  store i32 %152, ptr %4, align 4, !tbaa !8
  %153 = load i32, ptr %4, align 4, !tbaa !8
  %154 = icmp ne i32 %153, 0
  br i1 %154, label %155, label %157

155:                                              ; preds = %145
  %156 = load i32, ptr %4, align 4, !tbaa !8
  store i32 %156, ptr %2, align 4
  store i32 1, ptr %11, align 4
  br label %174

157:                                              ; preds = %145
  %158 = load ptr, ptr %14, align 8, !tbaa !10
  %159 = getelementptr inbounds nuw %struct.exr_coding_channel_info_t, ptr %158, i32 0, i32 6
  %160 = load i8, ptr %159, align 1, !tbaa !59
  %161 = sext i8 %160 to i32
  %162 = icmp eq i32 %161, 2
  br i1 %162, label %163, label %168

163:                                              ; preds = %157
  %164 = load ptr, ptr %9, align 8, !tbaa !49
  %165 = load ptr, ptr %14, align 8, !tbaa !10
  %166 = getelementptr inbounds nuw %struct.exr_coding_channel_info_t, ptr %165, i32 0, i32 2
  %167 = load i32, ptr %166, align 4, !tbaa !74
  call void @priv_to_native16(ptr noundef %164, i32 noundef %167)
  br label %173

168:                                              ; preds = %157
  %169 = load ptr, ptr %9, align 8, !tbaa !49
  %170 = load ptr, ptr %14, align 8, !tbaa !10
  %171 = getelementptr inbounds nuw %struct.exr_coding_channel_info_t, ptr %170, i32 0, i32 2
  %172 = load i32, ptr %171, align 4, !tbaa !74
  call void @priv_to_native32(ptr noundef %169, i32 noundef %172)
  br label %173

173:                                              ; preds = %168, %163
  store i32 0, ptr %11, align 4
  br label %174

174:                                              ; preds = %173, %155, %120, %105
  call void @llvm.lifetime.end.p0(i64 8, ptr %14) #6
  %175 = load i32, ptr %11, align 4
  switch i32 %175, label %180 [
    i32 0, label %176
    i32 7, label %177
  ]

176:                                              ; preds = %174
  br label %177

177:                                              ; preds = %176, %174
  %178 = load i32, ptr %13, align 4, !tbaa !8
  %179 = add nsw i32 %178, 1
  store i32 %179, ptr %13, align 4, !tbaa !8
  br label %74, !llvm.loop !76

180:                                              ; preds = %174, %81
  call void @llvm.lifetime.end.p0(i64 4, ptr %13) #6
  %181 = load i32, ptr %11, align 4
  switch i32 %181, label %186 [
    i32 5, label %182
  ]

182:                                              ; preds = %180
  br label %183

183:                                              ; preds = %182
  %184 = load i32, ptr %12, align 4, !tbaa !8
  %185 = add nsw i32 %184, 1
  store i32 %185, ptr %12, align 4, !tbaa !8
  br label %68, !llvm.loop !77

186:                                              ; preds = %180, %72
  call void @llvm.lifetime.end.p0(i64 4, ptr %12) #6
  %187 = load i32, ptr %11, align 4
  switch i32 %187, label %189 [
    i32 2, label %188
  ]

188:                                              ; preds = %186
  store i32 0, ptr %2, align 4
  store i32 1, ptr %11, align 4
  br label %189

189:                                              ; preds = %188, %186, %46, %27, %20
  call void @llvm.lifetime.end.p0(i64 8, ptr %10) #6
  call void @llvm.lifetime.end.p0(i64 8, ptr %9) #6
  call void @llvm.lifetime.end.p0(i64 8, ptr %8) #6
  call void @llvm.lifetime.end.p0(i64 8, ptr %7) #6
  call void @llvm.lifetime.end.p0(i64 4, ptr %6) #6
  call void @llvm.lifetime.end.p0(i64 4, ptr %5) #6
  call void @llvm.lifetime.end.p0(i64 4, ptr %4) #6
  %190 = load i32, ptr %2, align 4
  ret i32 %190
}