; Function Attrs: nounwind uwtable
define internal i32 @read_uncompressed_direct(ptr noundef readonly captures(none) %0) #0 {
  %2 = alloca i64, align 8
  call void @llvm.lifetime.start.p0(i64 8, ptr nonnull %2) #5
  %3 = getelementptr inbounds nuw i8, ptr %0, i64 24
  %4 = load ptr, ptr %3, align 8, !tbaa !38
  %.not = icmp eq ptr %4, null
  br i1 %.not, label %.thread71, label %5

5:                                                ; preds = %1
  %6 = load i8, ptr %4, align 8, !tbaa !42
  %.not62 = icmp eq i8 %6, 0
  br i1 %.not62, label %11, label %7

7:                                                ; preds = %5
  %8 = getelementptr inbounds nuw i8, ptr %4, i64 56
  %9 = load ptr, ptr %8, align 8, !tbaa !3
  %10 = tail call i32 %9(ptr noundef nonnull %4, i32 noundef 7) #5
  br label %.thread71

11:                                               ; preds = %5
  %12 = getelementptr inbounds nuw i8, ptr %0, i64 20
  %13 = load i32, ptr %12, align 4, !tbaa !34
  %14 = icmp slt i32 %13, 0
  br i1 %14, label %18, label %15

15:                                               ; preds = %11
  %16 = getelementptr inbounds nuw i8, ptr %4, i64 196
  %17 = load i32, ptr %16, align 4, !tbaa !22
  %.not63 = icmp slt i32 %13, %17
  br i1 %.not63, label %22, label %18

18:                                               ; preds = %15, %11
  %19 = getelementptr inbounds nuw i8, ptr %4, i64 72
  %20 = load ptr, ptr %19, align 8, !tbaa !28
  %21 = tail call i32 (ptr, i32, ptr, ...) %20(ptr noundef nonnull %4, i32 noundef 4, ptr noundef nonnull @.str.1, i32 noundef %13) #5
  br label %.thread71

22:                                               ; preds = %15
  %23 = getelementptr inbounds nuw i8, ptr %0, i64 56
  %24 = load i64, ptr %23, align 8, !tbaa !63
  store i64 %24, ptr %2, align 8, !tbaa !41
  %25 = getelementptr inbounds nuw i8, ptr %0, i64 44
  %26 = load i32, ptr %25, align 4, !tbaa !64
  %.not6676 = icmp sgt i32 %26, 0
  br i1 %.not6676, label %.preheader.lr.ph, label %.thread71

.preheader.lr.ph:                                 ; preds = %22
  %27 = getelementptr inbounds nuw i8, ptr %0, i64 40
  %28 = load i32, ptr %27, align 8, !tbaa !65
  %29 = getelementptr inbounds nuw i8, ptr %0, i64 16
  %30 = getelementptr inbounds nuw i8, ptr %0, i64 8
  %31 = getelementptr inbounds nuw i8, ptr %4, i64 40
  %wide.trip.count = zext nneg i32 %26 to i64
  %.pre = load i16, ptr %29, align 8, !tbaa !43
  br label %.preheader

.preheader:                                       ; preds = %.preheader.lr.ph, %._crit_edge
  %32 = phi i16 [ %.pre, %.preheader.lr.ph ], [ %77, %._crit_edge ]
  %33 = phi i16 [ %.pre, %.preheader.lr.ph ], [ %78, %._crit_edge ]
  %indvars.iv80 = phi i64 [ 0, %.preheader.lr.ph ], [ %indvars.iv.next81, %._crit_edge ]
  %.not6774 = icmp sgt i16 %33, 0
  br i1 %.not6774, label %.lr.ph, label %._crit_edge

.lr.ph:                                           ; preds = %.preheader
  %34 = trunc i64 %indvars.iv80 to i32
  %35 = add i32 %28, %34
  %36 = trunc nuw nsw i64 %indvars.iv80 to i32
  br label %37

37:                                               ; preds = %.lr.ph, %74
  %38 = phi i16 [ %32, %.lr.ph ], [ %75, %74 ]
  %indvars.iv = phi i64 [ 0, %.lr.ph ], [ %indvars.iv.next, %74 ]
  %39 = load ptr, ptr %30, align 8, !tbaa !44
  %40 = getelementptr inbounds nuw %struct.exr_coding_channel_info_t, ptr %39, i64 %indvars.iv
  %41 = getelementptr inbounds nuw i8, ptr %40, i64 40
  %42 = load ptr, ptr %41, align 8, !tbaa !27
  %43 = getelementptr inbounds nuw i8, ptr %40, i64 12
  %44 = load i32, ptr %43, align 4, !tbaa !66
  %45 = sext i32 %44 to i64
  %46 = getelementptr inbounds nuw i8, ptr %40, i64 25
  %47 = load i8, ptr %46, align 1, !tbaa !51
  %48 = sext i8 %47 to i64
  %49 = mul nsw i64 %48, %45
  %50 = getelementptr inbounds nuw i8, ptr %40, i64 8
  %51 = load i32, ptr %50, align 8, !tbaa !45
  %52 = icmp eq i32 %51, 0
  br i1 %52, label %74, label %53

53:                                               ; preds = %37
  %54 = getelementptr inbounds nuw i8, ptr %40, i64 20
  %55 = load i32, ptr %54, align 4, !tbaa !53
  %56 = icmp sgt i32 %55, 1
  br i1 %56, label %57, label %66

57:                                               ; preds = %53
  %58 = srem i32 %35, %55
  %.not64 = icmp eq i32 %58, 0
  br i1 %.not64, label %59, label %74

59:                                               ; preds = %57
  %60 = udiv i32 %36, %55
  %61 = zext nneg i32 %60 to i64
  %62 = getelementptr inbounds nuw i8, ptr %40, i64 36
  %63 = load i32, ptr %62, align 4, !tbaa !55
  %64 = sext i32 %63 to i64
  %65 = mul nsw i64 %64, %61
  br label %71

66:                                               ; preds = %53
  %67 = getelementptr inbounds nuw i8, ptr %40, i64 36
  %68 = load i32, ptr %67, align 4, !tbaa !55
  %69 = sext i32 %68 to i64
  %70 = mul nsw i64 %indvars.iv80, %69
  br label %71

71:                                               ; preds = %66, %59
  %.pn = phi i64 [ %65, %59 ], [ %70, %66 ]
  %.057 = getelementptr inbounds nuw i8, ptr %42, i64 %.pn
  %72 = load ptr, ptr %31, align 8, !tbaa !67
  %73 = call i32 %72(ptr noundef nonnull %4, ptr noundef %.057, i64 noundef %49, ptr noundef nonnull %2, ptr noundef null, i32 noundef 0) #5
  %.not65 = icmp eq i32 %73, 0
  br i1 %.not65, label %._crit_edge83, label %.thread71

._crit_edge83:                                    ; preds = %71
  %.pre84 = load i16, ptr %29, align 8, !tbaa !43
  br label %74

74:                                               ; preds = %._crit_edge83, %37, %57
  %75 = phi i16 [ %.pre84, %._crit_edge83 ], [ %38, %37 ], [ %38, %57 ]
  %indvars.iv.next = add nuw nsw i64 %indvars.iv, 1
  %76 = sext i16 %75 to i64
  %.not67 = icmp slt i64 %indvars.iv.next, %76
  br i1 %.not67, label %37, label %._crit_edge, !llvm.loop !68

._crit_edge:                                      ; preds = %74, %.preheader
  %77 = phi i16 [ %32, %.preheader ], [ %75, %74 ]
  %78 = phi i16 [ %33, %.preheader ], [ %75, %74 ]
  %indvars.iv.next81 = add nuw nsw i64 %indvars.iv80, 1
  %exitcond.not = icmp eq i64 %indvars.iv.next81, %wide.trip.count
  br i1 %exitcond.not, label %.thread71, label %.preheader, !llvm.loop !69

.thread71:                                        ; preds = %._crit_edge, %71, %22, %1, %18, %7
  %.0 = phi i32 [ %10, %7 ], [ %21, %18 ], [ 2, %1 ], [ 0, %22 ], [ %73, %71 ], [ 0, %._crit_edge ]
  call void @llvm.lifetime.end.p0(i64 8, ptr nonnull %2) #5
  ret i32 %.0
}